target datalayout = "e-m:e-p270:32:32-p271:32:32-p272:64:64-i64:64-i128:128-f80:128-n8:16:32:64-S128"
target triple = "x86_64-pc-linux-gnu"

%"class.boost::fibers::context" = type { ptr, %"struct.std::atomic", %"class.boost::intrusive::slist_member_hook", %"class.boost::fibers::detail::spinlock_ttas", i8, %"class.boost::fibers::wait_queue", %"struct.std::atomic", ptr, %"class.std::map", %"class.boost::intrusive::set_member_hook", %"class.boost::fibers::waker", %"class.boost::intrusive::list_member_hook", %"class.boost::intrusive::slist_member_hook.7", %"class.boost::intrusive::list_member_hook.8", ptr, %"class.boost::context::fiber", %"class.std::chrono::time_point", i32, i32 }
%"class.boost::intrusive::slist_member_hook" = type { %"class.boost::intrusive::generic_hook" }
%"class.boost::intrusive::generic_hook" = type { %"struct.boost::intrusive::slist_node" }
%"struct.boost::intrusive::slist_node" = type { ptr }
%"class.boost::fibers::detail::spinlock_ttas" = type { %"struct.std::atomic.2" }
%"struct.std::atomic.2" = type { i32 }
%"class.boost::fibers::wait_queue" = type { %"class.boost::intrusive::slist" }
%"class.boost::intrusive::slist" = type { %"class.boost::intrusive::slist_impl" }
%"class.boost::intrusive::slist_impl" = type { %"struct.boost::intrusive::slist_impl<boost::intrusive::mhtraits<boost::fibers::waker_with_hook, boost::intrusive::slist_member_hook<>, &boost::fibers::waker_with_hook::waker_queue_hook_>, unsigned long, 4, void>::data_t" }
%"struct.boost::intrusive::slist_impl<boost::intrusive::mhtraits<boost::fibers::waker_with_hook, boost::intrusive::slist_member_hook<>, &boost::fibers::waker_with_hook::waker_queue_hook_>, unsigned long, 4, void>::data_t" = type { %"struct.boost::intrusive::slist_impl<boost::intrusive::mhtraits<boost::fibers::waker_with_hook, boost::intrusive::slist_member_hook<>, &boost::fibers::waker_with_hook::waker_queue_hook_>, unsigned long, 4, void>::root_plus_size" }
%"struct.boost::intrusive::slist_impl<boost::intrusive::mhtraits<boost::fibers::waker_with_hook, boost::intrusive::slist_member_hook<>, &boost::fibers::waker_with_hook::waker_queue_hook_>, unsigned long, 4, void>::root_plus_size" = type { %"struct.boost::intrusive::header_holder_plus_last" }
%"struct.boost::intrusive::header_holder_plus_last" = type { %"struct.boost::intrusive::detail::default_header_holder", ptr }
%"struct.boost::intrusive::detail::default_header_holder" = type { %"struct.boost::intrusive::slist_node" }
%"struct.std::atomic" = type { %"struct.std::__atomic_base" }
%"struct.std::__atomic_base" = type { i64 }
%"class.std::map" = type { %"class.std::_Rb_tree" }
%"class.std::_Rb_tree" = type { %"struct.std::_Rb_tree<unsigned long, std::pair<const unsigned long, boost::fibers::context::fss_data>, std::_Select1st<std::pair<const unsigned long, boost::fibers::context::fss_data>>, std::less<unsigned long>>::_Rb_tree_impl" }
%"struct.std::_Rb_tree<unsigned long, std::pair<const unsigned long, boost::fibers::context::fss_data>, std::_Select1st<std::pair<const unsigned long, boost::fibers::context::fss_data>>, std::less<unsigned long>>::_Rb_tree_impl" = type { [8 x i8], %"struct.std::_Rb_tree_header" }
%"struct.std::_Rb_tree_header" = type { %"struct.std::_Rb_tree_node_base", i64 }
%"struct.std::_Rb_tree_node_base" = type { i32, ptr, ptr, ptr }
%"class.boost::intrusive::set_member_hook" = type { %"class.boost::intrusive::generic_hook.3" }
%"class.boost::intrusive::generic_hook.3" = type { %"struct.boost::intrusive::rbtree_node" }
%"struct.boost::intrusive::rbtree_node" = type { ptr, ptr, ptr, i32 }
%"class.boost::fibers::waker" = type { ptr, i64 }
%"class.boost::intrusive::list_member_hook" = type { %"class.boost::intrusive::generic_hook.5" }
%"class.boost::intrusive::generic_hook.5" = type { %"struct.boost::intrusive::list_node" }
%"struct.boost::intrusive::list_node" = type { ptr, ptr }
%"class.boost::intrusive::slist_member_hook.7" = type { %"class.boost::intrusive::generic_hook" }
%"class.boost::intrusive::list_member_hook.8" = type { %"class.boost::intrusive::generic_hook.5" }
%"class.boost::context::fiber" = type { ptr }
%"class.std::chrono::time_point" = type { %"class.std::chrono::duration" }
%"class.std::chrono::duration" = type { i64 }

; Function Attrs: inlinehint mustprogress nounwind uwtable
define linkonce_odr hidden noundef ptr @_ZN5boost11move_detail9addressofINS_9intrusive9list_nodeIPvEEEEPT_RS6_(ptr noundef nonnull align 8 dereferenceable(16) %0) #9 comdat {
  %2 = alloca ptr, align 8
  store ptr %0, ptr %2, align 8, !tbaa !3
  %3 = load ptr, ptr %2, align 8, !tbaa !3
  ret ptr %3
}

; Function Attrs: noinline noreturn nounwind uwtable
define linkonce_odr hidden void @__clang_call_terminate(ptr noundef %0) #8 comdat {
  %2 = call ptr @__cxa_begin_catch(ptr %0) #3
  call void @_ZSt9terminatev() #24
  unreachable
}

; Function Attrs: inlinehint mustprogress nounwind uwtable
define linkonce_odr hidden void @_ZN5boost9intrusive16list_node_traitsIPvE12set_previousEPNS0_9list_nodeIS2_EES6_(ptr noundef %0, ptr noundef %1) #9 comdat align 2 {
  %3 = alloca ptr, align 8
  %4 = alloca ptr, align 8
  store ptr %0, ptr %3, align 8, !tbaa !3
  store ptr %1, ptr %4, align 8, !tbaa !3
  %5 = load ptr, ptr %4, align 8, !tbaa !3
  %6 = load ptr, ptr %3, align 8, !tbaa !3
  %7 = getelementptr inbounds nuw %"struct.boost::intrusive::list_node", ptr %6, i32 0, i32 1
  store ptr %5, ptr %7, align 8, !tbaa !131
  ret void
}

; Function Attrs: inlinehint mustprogress nounwind uwtable
define linkonce_odr hidden void @_ZN5boost9intrusive16list_node_traitsIPvE8set_nextEPNS0_9list_nodeIS2_EES6_(ptr noundef %0, ptr noundef %1) #9 comdat align 2 {
  %3 = alloca ptr, align 8
  %4 = alloca ptr, align 8
  store ptr %0, ptr %3, align 8, !tbaa !3
  store ptr %1, ptr %4, align 8, !tbaa !3
  %5 = load ptr, ptr %4, align 8, !tbaa !3
  %6 = load ptr, ptr %3, align 8, !tbaa !3
  %7 = getelementptr inbounds nuw %"struct.boost::intrusive::list_node", ptr %6, i32 0, i32 0
  store ptr %5, ptr %7, align 8, !tbaa !130
  ret void
}

; Function Attrs: inlinehint mustprogress nounwind uwtable
define linkonce_odr hidden noundef ptr @_ZN5boost9intrusive16list_node_traitsIPvE12get_previousEPNS0_9list_nodeIS2_EE(ptr noundef %0) #9 comdat align 2 {
  %2 = alloca ptr, align 8
  store ptr %0, ptr %2, align 8, !tbaa !3
  %3 = load ptr, ptr %2, align 8, !tbaa !3
  %4 = getelementptr inbounds nuw %"struct.boost::intrusive::list_node", ptr %3, i32 0, i32 1
  %5 = load ptr, ptr %4, align 8, !tbaa !131
  ret ptr %5
}

; Function Attrs: inlinehint mustprogress nounwind uwtable
define linkonce_odr hidden noundef ptr @_ZN5boost9intrusive16list_node_traitsIPvE8get_nextEPNS0_9list_nodeIS2_EE(ptr noundef %0) #9 comdat align 2 {
  %2 = alloca ptr, align 8
  store ptr %0, ptr %2, align 8, !tbaa !3
  %3 = load ptr, ptr %2, align 8, !tbaa !3
  %4 = getelementptr inbounds nuw %"struct.boost::intrusive::list_node", ptr %3, i32 0, i32 0
  %5 = load ptr, ptr %4, align 8, !tbaa !130
  ret ptr %5
}

; Function Attrs: inlinehint mustprogress nounwind uwtable
define linkonce_odr hidden noundef ptr @_ZN5boost9intrusive16list_node_traitsIPvE8get_nextEPKNS0_9list_nodeIS2_EE(ptr noundef %0) #9 comdat align 2 {
  %2 = alloca ptr, align 8
  store ptr %0, ptr %2, align 8, !tbaa !3
  %3 = load ptr, ptr %2, align 8, !tbaa !3
  %4 = getelementptr inbounds nuw %"struct.boost::intrusive::list_node", ptr %3, i32 0, i32 0
  %5 = load ptr, ptr %4, align 8, !tbaa !130
  ret ptr %5
}

; Function Attrs: inlinehint mustprogress nounwind uwtable
define linkonce_odr hidden noundef ptr @_ZN5boost9intrusive14pointer_traitsIPNS0_9list_nodeIPvEEE10pointer_toERS4_(ptr noundef nonnull align 8 dereferenceable(16) %0) #9 comdat align 2 {
  %2 = alloca ptr, align 8
  store ptr %0, ptr %2, align 8, !tbaa !3
  %3 = load ptr, ptr %2, align 8, !tbaa !3
  %4 = call noundef ptr @_ZN5boost11move_detail9addressofINS_9intrusive9list_nodeIPvEEEEPT_RS6_(ptr noundef nonnull align 8 dereferenceable(16) %3) #3
  ret ptr %4
}

; Function Attrs: mustprogress nounwind uwtable
define linkonce_odr hidden void @_ZN5boost9intrusive24circular_list_algorithmsINS0_16list_node_traitsIPvEEE4initEPNS0_9list_nodeIS3_EE(ptr noundef %0) #4 comdat align 2 personality ptr @__gxx_personality_v0 {
  %2 = alloca ptr, align 8
  %3 = alloca ptr, align 8
  store ptr %0, ptr %2, align 8, !tbaa !3
  call void @llvm.lifetime.start.p0(i64 8, ptr %3) #3
  store ptr null, ptr %3, align 8, !tbaa !3
  %4 = load ptr, ptr %2, align 8, !tbaa !3
  invoke void @_ZN5boost9intrusive16list_node_traitsIPvE8set_nextEPNS0_9list_nodeIS2_EES6_(ptr noundef %4, ptr noundef null)
          to label %5 unwind label %8

5:                                                ; preds = %1
  %6 = load ptr, ptr %2, align 8, !tbaa !3
  invoke void @_ZN5boost9intrusive16list_node_traitsIPvE12set_previousEPNS0_9list_nodeIS2_EES6_(ptr noundef %6, ptr noundef null)
          to label %7 unwind label %8

7:                                                ; preds = %5
  call void @llvm.lifetime.end.p0(i64 8, ptr %3) #3
  ret void

8:                                                ; preds = %5, %1
  %9 = landingpad { ptr, i32 }
          catch ptr null
  %10 = extractvalue { ptr, i32 } %9, 0
  call void @__clang_call_terminate(ptr %10) #24
  unreachable
}

; Function Attrs: mustprogress nounwind uwtable
define linkonce_odr hidden noundef ptr @_ZN5boost9intrusive24circular_list_algorithmsINS0_16list_node_traitsIPvEEE6unlinkEPNS0_9list_nodeIS3_EE(ptr noundef %0) #4 comdat align 2 personality ptr @__gxx_personality_v0 {
  %2 = alloca ptr, align 8
  %3 = alloca ptr, align 8
  %4 = alloca ptr, align 8
  store ptr %0, ptr %2, align 8, !tbaa !3
  call void @llvm.lifetime.start.p0(i64 8, ptr %3) #3
  %5 = load ptr, ptr %2, align 8, !tbaa !3
  %6 = invoke noundef ptr @_ZN5boost9intrusive16list_node_traitsIPvE8get_nextEPNS0_9list_nodeIS2_EE(ptr noundef %5)
          to label %7 unwind label %16

7:                                                ; preds = %1
  store ptr %6, ptr %3, align 8, !tbaa !3
  call void @llvm.lifetime.start.p0(i64 8, ptr %4) #3
  %8 = load ptr, ptr %2, align 8, !tbaa !3
  %9 = invoke noundef ptr @_ZN5boost9intrusive16list_node_traitsIPvE12get_previousEPNS0_9list_nodeIS2_EE(ptr noundef %8)
          to label %10 unwind label %16

10:                                               ; preds = %7
  store ptr %9, ptr %4, align 8, !tbaa !3
  %11 = load ptr, ptr %4, align 8, !tbaa !3
  %12 = load ptr, ptr %3, align 8, !tbaa !3
  call void @_ZN5boost9intrusive16list_node_traitsIPvE8set_nextEPNS0_9list_nodeIS2_EES6_(ptr noundef %11, ptr noundef %12)
  %13 = load ptr, ptr %3, align 8, !tbaa !3
  %14 = load ptr, ptr %4, align 8, !tbaa !3
  call void @_ZN5boost9intrusive16list_node_traitsIPvE12set_previousEPNS0_9list_nodeIS2_EES6_(ptr noundef %13, ptr noundef %14)
  %15 = load ptr, ptr %3, align 8, !tbaa !3
  call void @llvm.lifetime.end.p0(i64 8, ptr %4) #3
  call void @llvm.lifetime.end.p0(i64 8, ptr %3) #3
  ret ptr %15

16:                                               ; preds = %7, %1
  %17 = landingpad { ptr, i32 }
          catch ptr null
  %18 = extractvalue { ptr, i32 } %17, 0
  call void @__clang_call_terminate(ptr %18) #24
  unreachable
}

; Function Attrs: inlinehint mustprogress nounwind uwtable
define linkonce_odr hidden noundef zeroext i1 @_ZN5boost9intrusive24circular_list_algorithmsINS0_16list_node_traitsIPvEEE6initedEPKNS0_9list_nodeIS3_EE(ptr noundef %0) #9 comdat align 2 {
  %2 = alloca ptr, align 8
  store ptr %0, ptr %2, align 8, !tbaa !3
  %3 = load ptr, ptr %2, align 8, !tbaa !3
  %4 = call noundef ptr @_ZN5boost9intrusive16list_node_traitsIPvE8get_nextEPKNS0_9list_nodeIS2_EE(ptr noundef %3)
  %5 = icmp ne ptr %4, null
  %6 = xor i1 %5, true
  ret i1 %6
}

; Function Attrs: inlinehint mustprogress nounwind uwtable
define linkonce_odr hidden noundef ptr @_ZN5boost9intrusive12generic_hookILNS0_10algo_typesE0ENS0_16list_node_traitsIPvEENS0_10member_tagELNS0_14link_mode_typeE2ELNS0_14base_hook_typeE0EE8this_ptrEv(ptr noundef nonnull align 8 dereferenceable(16) %0) #9 comdat align 2 {
  %2 = alloca ptr, align 8
  store ptr %0, ptr %2, align 8, !tbaa !3
  %3 = load ptr, ptr %2, align 8
  %4 = call noundef ptr @_ZN5boost9intrusive14pointer_traitsIPNS0_9list_nodeIPvEEE10pointer_toERS4_(ptr noundef nonnull align 8 dereferenceable(16) %3) #3
  ret ptr %4
}

; Function Attrs: inlinehint mustprogress nounwind uwtable
define linkonce_odr hidden void @_ZN5boost9intrusive12generic_hookILNS0_10algo_typesE0ENS0_16list_node_traitsIPvEENS0_10member_tagELNS0_14link_mode_typeE2ELNS0_14base_hook_typeE0EE6unlinkEv(ptr noundef nonnull align 8 dereferenceable(16) %0) #9 comdat align 2 {
  %2 = alloca ptr, align 8
  %3 = alloca ptr, align 8
  store ptr %0, ptr %2, align 8, !tbaa !3
  %4 = load ptr, ptr %2, align 8
  call void @llvm.lifetime.start.p0(i64 8, ptr %3) #3
  %5 = call noundef ptr @_ZN5boost9intrusive12generic_hookILNS0_10algo_typesE0ENS0_16list_node_traitsIPvEENS0_10member_tagELNS0_14link_mode_typeE2ELNS0_14base_hook_typeE0EE8this_ptrEv(ptr noundef nonnull align 8 dereferenceable(16) %4) #3
  store ptr %5, ptr %3, align 8, !tbaa !3
  %6 = load ptr, ptr %3, align 8, !tbaa !3
  %7 = call noundef zeroext i1 @_ZN5boost9intrusive24circular_list_algorithmsINS0_16list_node_traitsIPvEEE6initedEPKNS0_9list_nodeIS3_EE(ptr noundef %6) #3
  br i1 %7, label %12, label %8

8:                                                ; preds = %1
  %9 = load ptr, ptr %3, align 8, !tbaa !3
  %10 = call noundef ptr @_ZN5boost9intrusive24circular_list_algorithmsINS0_16list_node_traitsIPvEEE6unlinkEPNS0_9list_nodeIS3_EE(ptr noundef %9) #3
  %11 = load ptr, ptr %3, align 8, !tbaa !3
  call void @_ZN5boost9intrusive24circular_list_algorithmsINS0_16list_node_traitsIPvEEE4initEPNS0_9list_nodeIS3_EE(ptr noundef %11) #3
  br label %12

12:                                               ; preds = %8, %1
  call void @llvm.lifetime.end.p0(i64 8, ptr %3) #3
  ret void
}

; Function Attrs: mustprogress nounwind uwtable
define void @_ZN5boost6fibers7context12ready_unlinkEv(ptr noundef nonnull align 8 dereferenceable(232) %0) #4 align 2 {
  %2 = alloca ptr, align 8
  store ptr %0, ptr %2, align 8, !tbaa !3
  %3 = load ptr, ptr %2, align 8
  %4 = getelementptr inbounds nuw %"class.boost::fibers::context", ptr %3, i32 0, i32 11
  call void @_ZN5boost9intrusive12generic_hookILNS0_10algo_typesE0ENS0_16list_node_traitsIPvEENS0_10member_tagELNS0_14link_mode_typeE2ELNS0_14base_hook_typeE0EE6unlinkEv(ptr noundef nonnull align 8 dereferenceable(16) %4) #3
  ret void
}